; Function Attrs: mustprogress nofree norecurse nosync nounwind willreturn memory(read, inaccessiblemem: none) uwtable
define noundef range(i64 0, 3) i64 @_ZNK3net17QuicPacketCreator19ExpansionOnNewFrameEv(ptr noundef nonnull readonly align 8 captures(none) dereferenceable(312) %0) local_unnamed_addr #14 align 2 {
  %2 = getelementptr inbounds nuw i8, ptr %0, i64 120
  %3 = load ptr, ptr %2, align 8, !tbaa !88
  %4 = getelementptr inbounds nuw i8, ptr %0, i64 128
  %5 = load ptr, ptr %4, align 8, !tbaa !88
  %6 = icmp eq ptr %3, %5
  br i1 %6, label %12, label %7

7:                                                ; preds = %1
  %8 = getelementptr inbounds i8, ptr %5, i64 -16
  %9 = load i32, ptr %8, align 8, !tbaa !97
  %10 = icmp eq i32 %9, 9
  %11 = select i1 %10, i64 2, i64 0
  br label %12

12:                                               ; preds = %7, %1
  %13 = phi i64 [ 0, %1 ], [ %11, %7 ]
  ret i64 %13
}